target datalayout = "e-m:e-p270:32:32-p271:32:32-p272:64:64-i64:64-i128:128-f80:128-n8:16:32:64-S128"
target triple = "x86_64-unknown-linux-gnu"

%struct.rsa_meth_st = type { %struct.openssl_method_common_st, ptr, ptr, ptr, ptr, ptr, ptr, ptr, ptr, ptr, ptr, ptr, ptr, ptr, i32, ptr, ptr, ptr }
%struct.openssl_method_common_st = type { i32, i8 }
%struct.CRYPTO_EX_DATA_CLASS = type { %struct.CRYPTO_STATIC_MUTEX, ptr, i8 }
%struct.CRYPTO_STATIC_MUTEX = type { %union.pthread_rwlock_t }
%union.pthread_rwlock_t = type { %struct.__pthread_rwlock_arch_t }
%struct.__pthread_rwlock_arch_t = type { i32, i32, i32, i32, i32, i32, i32, i32, i8, [7 x i8], i64, i32 }
%struct.rsa_st = type { ptr, ptr, ptr, ptr, ptr, ptr, ptr, ptr, ptr, ptr, %struct.crypto_ex_data_st, i32, i32, %union.crypto_mutex_st, ptr, ptr, ptr, i32, ptr, ptr }
%struct.crypto_ex_data_st = type { ptr }
%union.crypto_mutex_st = type { double, [48 x i8] }

@.str = private unnamed_addr constant [120 x i8] c"generated/home/dtcxzyw/WorkSpace/Projects/compilers/llvm-opt-benchmark/bench/libquic/libquic/boringssl/crypto/rsa/rsa.c\00", align 1
@RSA_default_method = external constant %struct.rsa_meth_st, align 8
@g_ex_data_class = internal global %struct.CRYPTO_EX_DATA_CLASS zeroinitializer, align 8

; Function Attrs: nounwind uwtable
define hidden ptr @RSA_new_method(ptr noundef %engine) #0 {
entry:
  %retval = alloca ptr, align 8
  %engine.addr = alloca ptr, align 8
  %rsa = alloca ptr, align 8
  store ptr %engine, ptr %engine.addr, align 8
  %call = call noalias ptr @malloc(i64 noundef 200) #7
  store ptr %call, ptr %rsa, align 8
  %0 = load ptr, ptr %rsa, align 8
  %cmp = icmp eq ptr %0, null
  br i1 %cmp, label %if.then, label %if.end

if.then:                                          ; preds = %entry
  call void @ERR_put_error(i32 noundef 4, i32 noundef 0, i32 noundef 65, ptr noundef @.str, i32 noundef 81)
  store ptr null, ptr %retval, align 8
  br label %return

if.end:                                           ; preds = %entry
  %1 = load ptr, ptr %rsa, align 8
  call void @llvm.memset.p0.i64(ptr align 8 %1, i8 0, i64 200, i1 false)
  %2 = load ptr, ptr %engine.addr, align 8
  %tobool = icmp ne ptr %2, null
  br i1 %tobool, label %if.then1, label %if.end3

if.then1:                                         ; preds = %if.end
  %3 = load ptr, ptr %engine.addr, align 8
  %call2 = call ptr @ENGINE_get_RSA_method(ptr noundef %3)
  %4 = load ptr, ptr %rsa, align 8
  %meth = getelementptr inbounds %struct.rsa_st, ptr %4, i32 0, i32 0
  store ptr %call2, ptr %meth, align 8
  br label %if.end3

if.end3:                                          ; preds = %if.then1, %if.end
  %5 = load ptr, ptr %rsa, align 8
  %meth4 = getelementptr inbounds %struct.rsa_st, ptr %5, i32 0, i32 0
  %6 = load ptr, ptr %meth4, align 8
  %cmp5 = icmp eq ptr %6, null
  br i1 %cmp5, label %if.then6, label %if.end8

if.then6:                                         ; preds = %if.end3
  %7 = load ptr, ptr %rsa, align 8
  %meth7 = getelementptr inbounds %struct.rsa_st, ptr %7, i32 0, i32 0
  store ptr @RSA_default_method, ptr %meth7, align 8
  br label %if.end8

if.end8:                                          ; preds = %if.then6, %if.end3
  %8 = load ptr, ptr %rsa, align 8
  %meth9 = getelementptr inbounds %struct.rsa_st, ptr %8, i32 0, i32 0
  %9 = load ptr, ptr %meth9, align 8
  call void @METHOD_ref(ptr noundef %9)
  %10 = load ptr, ptr %rsa, align 8
  %references = getelementptr inbounds %struct.rsa_st, ptr %10, i32 0, i32 11
  store i32 1, ptr %references, align 8
  %11 = load ptr, ptr %rsa, align 8
  %meth10 = getelementptr inbounds %struct.rsa_st, ptr %11, i32 0, i32 0
  %12 = load ptr, ptr %meth10, align 8
  %flags = getelementptr inbounds %struct.rsa_meth_st, ptr %12, i32 0, i32 14
  %13 = load i32, ptr %flags, align 8
  %14 = load ptr, ptr %rsa, align 8
  %flags11 = getelementptr inbounds %struct.rsa_st, ptr %14, i32 0, i32 12
  store i32 %13, ptr %flags11, align 4
  %15 = load ptr, ptr %rsa, align 8
  %lock = getelementptr inbounds %struct.rsa_st, ptr %15, i32 0, i32 13
  call void @CRYPTO_MUTEX_init(ptr noundef %lock)
  %16 = load ptr, ptr %rsa, align 8
  %ex_data = getelementptr inbounds %struct.rsa_st, ptr %16, i32 0, i32 10
  call void @CRYPTO_new_ex_data(ptr noundef %ex_data)
  %17 = load ptr, ptr %rsa, align 8
  %meth12 = getelementptr inbounds %struct.rsa_st, ptr %17, i32 0, i32 0
  %18 = load ptr, ptr %meth12, align 8
  %init = getelementptr inbounds %struct.rsa_meth_st, ptr %18, i32 0, i32 2
  %19 = load ptr, ptr %init, align 8
  %tobool13 = icmp ne ptr %19, null
  br i1 %tobool13, label %land.lhs.true, label %if.end22

land.lhs.true:                                    ; preds = %if.end8
  %20 = load ptr, ptr %rsa, align 8
  %meth14 = getelementptr inbounds %struct.rsa_st, ptr %20, i32 0, i32 0
  %21 = load ptr, ptr %meth14, align 8
  %init15 = getelementptr inbounds %struct.rsa_meth_st, ptr %21, i32 0, i32 2
  %22 = load ptr, ptr %init15, align 8
  %23 = load ptr, ptr %rsa, align 8
  %call16 = call i32 %22(ptr noundef %23)
  %tobool17 = icmp ne i32 %call16, 0
  br i1 %tobool17, label %if.end22, label %if.then18

if.then18:                                        ; preds = %land.lhs.true
  %24 = load ptr, ptr %rsa, align 8
  %25 = load ptr, ptr %rsa, align 8
  %ex_data19 = getelementptr inbounds %struct.rsa_st, ptr %25, i32 0, i32 10
  call void @CRYPTO_free_ex_data(ptr noundef @g_ex_data_class, ptr noundef %24, ptr noundef %ex_data19)
  %26 = load ptr, ptr %rsa, align 8
  %lock20 = getelementptr inbounds %struct.rsa_st, ptr %26, i32 0, i32 13
  call void @CRYPTO_MUTEX_cleanup(ptr noundef %lock20)
  %27 = load ptr, ptr %rsa, align 8
  %meth21 = getelementptr inbounds %struct.rsa_st, ptr %27, i32 0, i32 0
  %28 = load ptr, ptr %meth21, align 8
  call void @METHOD_unref(ptr noundef %28)
  %29 = load ptr, ptr %rsa, align 8
  call void @free(ptr noundef %29) #8
  store ptr null, ptr %retval, align 8
  br label %return

if.end22:                                         ; preds = %land.lhs.true, %if.end8
  %30 = load ptr, ptr %rsa, align 8
  store ptr %30, ptr %retval, align 8
  br label %return

return:                                           ; preds = %if.end22, %if.then18, %if.then
  %31 = load ptr, ptr %retval, align 8
  ret ptr %31
}