; Function Attrs: nounwind uwtable
define hidden noundef ptr @RSA_new_method(ptr noundef %engine) local_unnamed_addr #0 {
entry:
  %calloc = tail call dereferenceable_or_null(200) ptr @calloc(i64 1, i64 200)
  %cmp = icmp eq ptr %calloc, null
  br i1 %cmp, label %if.then, label %if.end

if.then:                                          ; preds = %entry
  tail call void @ERR_put_error(i32 noundef 4, i32 noundef 0, i32 noundef 65, ptr noundef nonnull @.str, i32 noundef 81) #9
  br label %return

if.end:                                           ; preds = %entry
  %tobool.not = icmp eq ptr %engine, null
  br i1 %tobool.not, label %if.then6, label %if.then1

if.then1:                                         ; preds = %if.end
  %call2 = tail call ptr @ENGINE_get_RSA_method(ptr noundef nonnull %engine) #9
  %0 = icmp eq ptr %call2, null
  br i1 %0, label %if.then6, label %if.end8

if.then6:                                         ; preds = %if.end, %if.then1
  br label %if.end8

if.end8:                                          ; preds = %if.then6, %if.then1
  %storemerge = phi ptr [ @RSA_default_method, %if.then6 ], [ %call2, %if.then1 ]
  store ptr %storemerge, ptr %calloc, align 8
  tail call void @METHOD_ref(ptr noundef nonnull %storemerge) #9
  %references = getelementptr inbounds nuw i8, ptr %calloc, i64 88
  store i32 1, ptr %references, align 8
  %flags = getelementptr inbounds nuw i8, ptr %storemerge, i64 112
  %1 = load i32, ptr %flags, align 8
  %flags11 = getelementptr inbounds nuw i8, ptr %calloc, i64 92
  store i32 %1, ptr %flags11, align 4
  %lock = getelementptr inbounds nuw i8, ptr %calloc, i64 96
  tail call void @CRYPTO_MUTEX_init(ptr noundef nonnull %lock) #9
  %ex_data = getelementptr inbounds nuw i8, ptr %calloc, i64 80
  tail call void @CRYPTO_new_ex_data(ptr noundef nonnull %ex_data) #9
  %2 = load ptr, ptr %calloc, align 8
  %init = getelementptr inbounds nuw i8, ptr %2, i64 16
  %3 = load ptr, ptr %init, align 8
  %tobool13.not = icmp eq ptr %3, null
  br i1 %tobool13.not, label %return, label %land.lhs.true

land.lhs.true:                                    ; preds = %if.end8
  %call16 = tail call i32 %3(ptr noundef nonnull %calloc) #9
  %tobool17.not = icmp eq i32 %call16, 0
  br i1 %tobool17.not, label %if.then18, label %return

if.then18:                                        ; preds = %land.lhs.true
  tail call void @CRYPTO_free_ex_data(ptr noundef nonnull @g_ex_data_class, ptr noundef nonnull %calloc, ptr noundef nonnull %ex_data) #9
  tail call void @CRYPTO_MUTEX_cleanup(ptr noundef nonnull %lock) #9
  %4 = load ptr, ptr %calloc, align 8
  tail call void @METHOD_unref(ptr noundef %4) #9
  tail call void @free(ptr noundef nonnull %calloc) #9
  br label %return

return:                                           ; preds = %if.end8, %land.lhs.true, %if.then18, %if.then
  %retval.0 = phi ptr [ null, %if.then ], [ null, %if.then18 ], [ %calloc, %land.lhs.true ], [ %calloc, %if.end8 ]
  ret ptr %retval.0
}